target datalayout = "e-m:e-p270:32:32-p271:32:32-p272:64:64-i64:64-i128:128-f80:128-n8:16:32:64-S128"
target triple = "x86_64-unknown-linux-gnu"

%"class.OpenColorIO_v2_4dev::CTFVersion" = type { i32, i32, i32 }
%"class.__gnu_cxx::__normal_iterator" = type { ptr }
%"class.std::__cxx11::basic_ostringstream" = type { %"class.std::basic_ostream.base", %"class.std::__cxx11::basic_stringbuf", %"class.std::basic_ios" }
%"class.std::basic_ostream.base" = type { ptr }
%"class.std::__cxx11::basic_stringbuf" = type { %"class.std::basic_streambuf", i32, %"class.std::__cxx11::basic_string" }
%"class.std::basic_streambuf" = type { ptr, ptr, ptr, ptr, ptr, ptr, ptr, %"class.std::locale" }
%"class.std::locale" = type { ptr }
%"class.std::__cxx11::basic_string" = type { %"struct.std::__cxx11::basic_string<char>::_Alloc_hider", i64, %union.anon }
%"struct.std::__cxx11::basic_string<char>::_Alloc_hider" = type { ptr }
%union.anon = type { i64, [8 x i8] }
%"class.std::basic_ios" = type { %"class.std::ios_base", ptr, i8, i8, ptr, ptr, ptr, ptr }
%"class.std::ios_base" = type { ptr, i64, i64, i32, i32, i32, ptr, %"struct.std::ios_base::_Words", [8 x %"struct.std::ios_base::_Words"], i32, ptr, %"class.std::locale" }
%"struct.std::ios_base::_Words" = type { ptr, i64 }

@.str = private unnamed_addr constant [2 x i8] c"'\00", align 1
@.str.12 = private unnamed_addr constant [27 x i8] c"' is not a valid version. \00", align 1
@.str.13 = private unnamed_addr constant [36 x i8] c"Expecting MAJOR[.MINOR[.REVISION]] \00", align 1
@_ZTIN19OpenColorIO_v2_4dev9ExceptionE = external constant ptr
@.str.14 = private unnamed_addr constant [9 x i8] c"%d.%d.%d\00", align 1

; Function Attrs: mustprogress nounwind uwtable
define linkonce_odr hidden noundef nonnull align 8 dereferenceable(8) ptr @_ZNK9__gnu_cxx17__normal_iteratorIPKcNSt7__cxx1112basic_stringIcSt11char_traitsIcESaIcEEEE4baseEv(ptr noundef nonnull align 8 dereferenceable(8) %this) #4 comdat align 2 {
entry:
  %this.addr = alloca ptr, align 8
  store ptr %this, ptr %this.addr, align 8
  %this1 = load ptr, ptr %this.addr, align 8
  %_M_current = getelementptr inbounds %"class.__gnu_cxx::__normal_iterator", ptr %this1, i32 0, i32 0
  ret ptr %_M_current
}

; Function Attrs: mustprogress nounwind uwtable
define linkonce_odr hidden noundef nonnull align 1 dereferenceable(1) ptr @_ZNK9__gnu_cxx17__normal_iteratorIPKcNSt7__cxx1112basic_stringIcSt11char_traitsIcESaIcEEEEixEl(ptr noundef nonnull align 8 dereferenceable(8) %this, i64 noundef %__n) #4 comdat align 2 {
entry:
  %this.addr = alloca ptr, align 8
  %__n.addr = alloca i64, align 8
  store ptr %this, ptr %this.addr, align 8
  store i64 %__n, ptr %__n.addr, align 8
  %this1 = load ptr, ptr %this.addr, align 8
  %_M_current = getelementptr inbounds %"class.__gnu_cxx::__normal_iterator", ptr %this1, i32 0, i32 0
  %0 = load ptr, ptr %_M_current, align 8
  %1 = load i64, ptr %__n.addr, align 8
  %arrayidx = getelementptr inbounds i8, ptr %0, i64 %1
  ret ptr %arrayidx
}

; Function Attrs: mustprogress nounwind uwtable
define linkonce_odr hidden noundef nonnull align 8 dereferenceable(8) ptr @_ZN9__gnu_cxx17__normal_iteratorIPKcNSt7__cxx1112basic_stringIcSt11char_traitsIcESaIcEEEEppEv(ptr noundef nonnull align 8 dereferenceable(8) %this) #4 comdat align 2 {
entry:
  %this.addr = alloca ptr, align 8
  store ptr %this, ptr %this.addr, align 8
  %this1 = load ptr, ptr %this.addr, align 8
  %_M_current = getelementptr inbounds %"class.__gnu_cxx::__normal_iterator", ptr %this1, i32 0, i32 0
  %0 = load ptr, ptr %_M_current, align 8
  %incdec.ptr = getelementptr inbounds i8, ptr %0, i32 1
  store ptr %incdec.ptr, ptr %_M_current, align 8
  ret ptr %this1
}

; Function Attrs: mustprogress nounwind uwtable
define linkonce_odr hidden noundef nonnull align 1 dereferenceable(1) ptr @_ZNK9__gnu_cxx17__normal_iteratorIPKcNSt7__cxx1112basic_stringIcSt11char_traitsIcESaIcEEEEdeEv(ptr noundef nonnull align 8 dereferenceable(8) %this) #4 comdat align 2 {
entry:
  %this.addr = alloca ptr, align 8
  store ptr %this, ptr %this.addr, align 8
  %this1 = load ptr, ptr %this.addr, align 8
  %_M_current = getelementptr inbounds %"class.__gnu_cxx::__normal_iterator", ptr %this1, i32 0, i32 0
  %0 = load ptr, ptr %_M_current, align 8
  ret ptr %0
}

; Function Attrs: mustprogress nounwind uwtable
define linkonce_odr noundef zeroext i1 @_ZN9__gnu_cxxneIPKcNSt7__cxx1112basic_stringIcSt11char_traitsIcESaIcEEEEEbRKNS_17__normal_iteratorIT_T0_EESE_(ptr noundef nonnull align 8 dereferenceable(8) %__lhs, ptr noundef nonnull align 8 dereferenceable(8) %__rhs) #4 comdat {
entry:
  %__lhs.addr = alloca ptr, align 8
  %__rhs.addr = alloca ptr, align 8
  store ptr %__lhs, ptr %__lhs.addr, align 8
  store ptr %__rhs, ptr %__rhs.addr, align 8
  %0 = load ptr, ptr %__lhs.addr, align 8
  %call = call noundef nonnull align 8 dereferenceable(8) ptr @_ZNK9__gnu_cxx17__normal_iteratorIPKcNSt7__cxx1112basic_stringIcSt11char_traitsIcESaIcEEEE4baseEv(ptr noundef nonnull align 8 dereferenceable(8) %0) #3
  %1 = load ptr, ptr %call, align 8
  %2 = load ptr, ptr %__rhs.addr, align 8
  %call1 = call noundef nonnull align 8 dereferenceable(8) ptr @_ZNK9__gnu_cxx17__normal_iteratorIPKcNSt7__cxx1112basic_stringIcSt11char_traitsIcESaIcEEEE4baseEv(ptr noundef nonnull align 8 dereferenceable(8) %2) #3
  %3 = load ptr, ptr %call1, align 8
  %cmp = icmp ne ptr %1, %3
  ret i1 %cmp
}

; Function Attrs: mustprogress uwtable
define hidden void @_ZN19OpenColorIO_v2_4dev10CTFVersion11ReadVersionERKNSt7__cxx1112basic_stringIcSt11char_traitsIcESaIcEEERS0_(ptr noundef nonnull align 8 dereferenceable(32) %versionString, ptr noundef nonnull align 4 dereferenceable(12) %versionOut) #5 align 2 personality ptr @__gxx_personality_v0 {
entry:
  %versionString.addr = alloca ptr, align 8
  %versionOut.addr = alloca ptr, align 8
  %numDot = alloca i32, align 4
  %numInt = alloca i32, align 4
  %canBeDot = alloca i8, align 1
  %it = alloca %"class.__gnu_cxx::__normal_iterator", align 8
  %ref.tmp = alloca %"class.__gnu_cxx::__normal_iterator", align 8
  %ref.tmp16 = alloca %"class.__gnu_cxx::__normal_iterator", align 8
  %os = alloca %"class.std::__cxx11::basic_ostringstream", align 8
  %exn.slot = alloca ptr, align 8
  %ehselector.slot = alloca i32, align 4
  %ref.tmp33 = alloca %"class.std::__cxx11::basic_string", align 8
  %cleanup.isactive = alloca i1, align 1
  store ptr %versionString, ptr %versionString.addr, align 8
  store ptr %versionOut, ptr %versionOut.addr, align 8
  store i32 0, ptr %numDot, align 4
  store i32 0, ptr %numInt, align 4
  store i8 0, ptr %canBeDot, align 1
  %0 = load ptr, ptr %versionString.addr, align 8
  %call = call ptr @_ZNKSt7__cxx1112basic_stringIcSt11char_traitsIcESaIcEE5beginEv(ptr noundef nonnull align 8 dereferenceable(32) %0) #3
  %coerce.dive = getelementptr inbounds %"class.__gnu_cxx::__normal_iterator", ptr %it, i32 0, i32 0
  store ptr %call, ptr %coerce.dive, align 8
  br label %while.cond

while.cond:                                       ; preds = %if.end14, %entry
  %1 = load ptr, ptr %versionString.addr, align 8
  %call1 = call ptr @_ZNKSt7__cxx1112basic_stringIcSt11char_traitsIcESaIcEE3endEv(ptr noundef nonnull align 8 dereferenceable(32) %1) #3
  %coerce.dive2 = getelementptr inbounds %"class.__gnu_cxx::__normal_iterator", ptr %ref.tmp, i32 0, i32 0
  store ptr %call1, ptr %coerce.dive2, align 8
  %call3 = call noundef zeroext i1 @_ZN9__gnu_cxxneIPKcNSt7__cxx1112basic_stringIcSt11char_traitsIcESaIcEEEEEbRKNS_17__normal_iteratorIT_T0_EESE_(ptr noundef nonnull align 8 dereferenceable(8) %it, ptr noundef nonnull align 8 dereferenceable(8) %ref.tmp) #3
  br i1 %call3, label %while.body, label %while.end

while.body:                                       ; preds = %while.cond
  %call4 = call noundef nonnull align 1 dereferenceable(1) ptr @_ZNK9__gnu_cxx17__normal_iteratorIPKcNSt7__cxx1112basic_stringIcSt11char_traitsIcESaIcEEEEdeEv(ptr noundef nonnull align 8 dereferenceable(8) %it) #3
  %2 = load i8, ptr %call4, align 1
  %conv = sext i8 %2 to i32
  %call5 = call i32 @isdigit(i32 noundef %conv) #15
  %tobool = icmp ne i32 %call5, 0
  br i1 %tobool, label %if.then, label %if.else

if.then:                                          ; preds = %while.body
  %3 = load i32, ptr %numDot, align 4
  %add = add i32 %3, 1
  store i32 %add, ptr %numInt, align 4
  store i8 1, ptr %canBeDot, align 1
  %call6 = call noundef nonnull align 8 dereferenceable(8) ptr @_ZN9__gnu_cxx17__normal_iteratorIPKcNSt7__cxx1112basic_stringIcSt11char_traitsIcESaIcEEEEppEv(ptr noundef nonnull align 8 dereferenceable(8) %it) #3
  br label %if.end14

if.else:                                          ; preds = %while.body
  %call7 = call noundef nonnull align 1 dereferenceable(1) ptr @_ZNK9__gnu_cxx17__normal_iteratorIPKcNSt7__cxx1112basic_stringIcSt11char_traitsIcESaIcEEEEixEl(ptr noundef nonnull align 8 dereferenceable(8) %it, i64 noundef 0) #3
  %4 = load i8, ptr %call7, align 1
  %conv8 = sext i8 %4 to i32
  %cmp = icmp eq i32 %conv8, 46
  br i1 %cmp, label %land.lhs.true, label %if.else13

land.lhs.true:                                    ; preds = %if.else
  %5 = load i8, ptr %canBeDot, align 1
  %tobool9 = trunc i8 %5 to i1
  br i1 %tobool9, label %if.then10, label %if.else13

if.then10:                                        ; preds = %land.lhs.true
  store i8 0, ptr %canBeDot, align 1
  %6 = load i32, ptr %numDot, align 4
  %add11 = add i32 %6, 1
  store i32 %add11, ptr %numDot, align 4
  %call12 = call noundef nonnull align 8 dereferenceable(8) ptr @_ZN9__gnu_cxx17__normal_iteratorIPKcNSt7__cxx1112basic_stringIcSt11char_traitsIcESaIcEEEEppEv(ptr noundef nonnull align 8 dereferenceable(8) %it) #3
  br label %if.end

if.else13:                                        ; preds = %land.lhs.true, %if.else
  br label %while.end

if.end:                                           ; preds = %if.then10
  br label %if.end14

if.end14:                                         ; preds = %if.end, %if.then
  br label %while.cond, !llvm.loop !4

while.end:                                        ; preds = %if.else13, %while.cond
  %7 = load ptr, ptr %versionString.addr, align 8
  %call15 = call noundef zeroext i1 @_ZNKSt7__cxx1112basic_stringIcSt11char_traitsIcESaIcEE5emptyEv(ptr noundef nonnull align 8 dereferenceable(32) %7) #3
  br i1 %call15, label %lor.end, label %lor.lhs.false

lor.lhs.false:                                    ; preds = %while.end
  %8 = load ptr, ptr %versionString.addr, align 8
  %call17 = call ptr @_ZNKSt7__cxx1112basic_stringIcSt11char_traitsIcESaIcEE3endEv(ptr noundef nonnull align 8 dereferenceable(32) %8) #3
  %coerce.dive18 = getelementptr inbounds %"class.__gnu_cxx::__normal_iterator", ptr %ref.tmp16, i32 0, i32 0
  store ptr %call17, ptr %coerce.dive18, align 8
  %call19 = call noundef zeroext i1 @_ZN9__gnu_cxxneIPKcNSt7__cxx1112basic_stringIcSt11char_traitsIcESaIcEEEEEbRKNS_17__normal_iteratorIT_T0_EESE_(ptr noundef nonnull align 8 dereferenceable(8) %it, ptr noundef nonnull align 8 dereferenceable(8) %ref.tmp16) #3
  br i1 %call19, label %lor.end, label %lor.lhs.false20

lor.lhs.false20:                                  ; preds = %lor.lhs.false
  %9 = load i32, ptr %numInt, align 4
  %cmp21 = icmp eq i32 %9, 0
  br i1 %cmp21, label %lor.end, label %lor.lhs.false22

lor.lhs.false22:                                  ; preds = %lor.lhs.false20
  %10 = load i32, ptr %numInt, align 4
  %cmp23 = icmp ugt i32 %10, 3
  br i1 %cmp23, label %lor.end, label %lor.rhs

lor.rhs:                                          ; preds = %lor.lhs.false22
  %11 = load i32, ptr %numInt, align 4
  %12 = load i32, ptr %numDot, align 4
  %cmp24 = icmp eq i32 %11, %12
  br label %lor.end

lor.end:                                          ; preds = %lor.rhs, %lor.lhs.false22, %lor.lhs.false20, %lor.lhs.false, %while.end
  %13 = phi i1 [ true, %lor.lhs.false22 ], [ true, %lor.lhs.false20 ], [ true, %lor.lhs.false ], [ true, %while.end ], [ %cmp24, %lor.rhs ]
  br i1 %13, label %if.then25, label %if.end40

if.then25:                                        ; preds = %lor.end
  call void @_ZNSt7__cxx1119basic_ostringstreamIcSt11char_traitsIcESaIcEEC1Ev(ptr noundef nonnull align 8 dereferenceable(112) %os)
  %call26 = invoke noundef nonnull align 8 dereferenceable(8) ptr @_ZStlsISt11char_traitsIcEERSt13basic_ostreamIcT_ES5_PKc(ptr noundef nonnull align 8 dereferenceable(8) %os, ptr noundef @.str)
          to label %invoke.cont unwind label %lpad

invoke.cont:                                      ; preds = %if.then25
  %14 = load ptr, ptr %versionString.addr, align 8
  %call28 = invoke noundef nonnull align 8 dereferenceable(8) ptr @_ZStlsIcSt11char_traitsIcESaIcEERSt13basic_ostreamIT_T0_ES7_RKNSt7__cxx1112basic_stringIS4_S5_T1_EE(ptr noundef nonnull align 8 dereferenceable(8) %os, ptr noundef nonnull align 8 dereferenceable(32) %14)
          to label %invoke.cont27 unwind label %lpad

invoke.cont27:                                    ; preds = %invoke.cont
  %call30 = invoke noundef nonnull align 8 dereferenceable(8) ptr @_ZStlsISt11char_traitsIcEERSt13basic_ostreamIcT_ES5_PKc(ptr noundef nonnull align 8 dereferenceable(8) %os, ptr noundef @.str.12)
          to label %invoke.cont29 unwind label %lpad

invoke.cont29:                                    ; preds = %invoke.cont27
  %call32 = invoke noundef nonnull align 8 dereferenceable(8) ptr @_ZStlsISt11char_traitsIcEERSt13basic_ostreamIcT_ES5_PKc(ptr noundef nonnull align 8 dereferenceable(8) %os, ptr noundef @.str.13)
          to label %invoke.cont31 unwind label %lpad

invoke.cont31:                                    ; preds = %invoke.cont29
  store i1 true, ptr %cleanup.isactive, align 1
  %exception = call ptr @__cxa_allocate_exception(i64 16) #3
  invoke void @_ZNKSt7__cxx1119basic_ostringstreamIcSt11char_traitsIcESaIcEE3strEv(ptr sret(%"class.std::__cxx11::basic_string") align 8 %ref.tmp33, ptr noundef nonnull align 8 dereferenceable(112) %os)
          to label %invoke.cont35 unwind label %lpad34

invoke.cont35:                                    ; preds = %invoke.cont31
  %call36 = call noundef ptr @_ZNKSt7__cxx1112basic_stringIcSt11char_traitsIcESaIcEE5c_strEv(ptr noundef nonnull align 8 dereferenceable(32) %ref.tmp33) #3
  invoke void @_ZN19OpenColorIO_v2_4dev9ExceptionC1EPKc(ptr noundef nonnull align 8 dereferenceable(16) %exception, ptr noundef %call36)
          to label %invoke.cont38 unwind label %lpad37

invoke.cont38:                                    ; preds = %invoke.cont35
  store i1 false, ptr %cleanup.isactive, align 1
  invoke void @__cxa_throw(ptr %exception, ptr @_ZTIN19OpenColorIO_v2_4dev9ExceptionE, ptr @_ZN19OpenColorIO_v2_4dev9ExceptionD1Ev) #16
          to label %unreachable unwind label %lpad37

lpad:                                             ; preds = %invoke.cont29, %invoke.cont27, %invoke.cont, %if.then25
  %15 = landingpad { ptr, i32 }
          cleanup
  %16 = extractvalue { ptr, i32 } %15, 0
  store ptr %16, ptr %exn.slot, align 8
  %17 = extractvalue { ptr, i32 } %15, 1
  store i32 %17, ptr %ehselector.slot, align 4
  br label %ehcleanup39

lpad34:                                           ; preds = %invoke.cont31
  %18 = landingpad { ptr, i32 }
          cleanup
  %19 = extractvalue { ptr, i32 } %18, 0
  store ptr %19, ptr %exn.slot, align 8
  %20 = extractvalue { ptr, i32 } %18, 1
  store i32 %20, ptr %ehselector.slot, align 4
  br label %ehcleanup

lpad37:                                           ; preds = %invoke.cont38, %invoke.cont35
  %21 = landingpad { ptr, i32 }
          cleanup
  %22 = extractvalue { ptr, i32 } %21, 0
  store ptr %22, ptr %exn.slot, align 8
  %23 = extractvalue { ptr, i32 } %21, 1
  store i32 %23, ptr %ehselector.slot, align 4
  call void @_ZNSt7__cxx1112basic_stringIcSt11char_traitsIcESaIcEED1Ev(ptr noundef nonnull align 8 dereferenceable(32) %ref.tmp33) #3
  br label %ehcleanup

ehcleanup:                                        ; preds = %lpad37, %lpad34
  %cleanup.is_active = load i1, ptr %cleanup.isactive, align 1
  br i1 %cleanup.is_active, label %cleanup.action, label %cleanup.done

cleanup.action:                                   ; preds = %ehcleanup
  call void @__cxa_free_exception(ptr %exception) #3
  br label %cleanup.done

cleanup.done:                                     ; preds = %cleanup.action, %ehcleanup
  br label %ehcleanup39

ehcleanup39:                                      ; preds = %cleanup.done, %lpad
  call void @_ZNSt7__cxx1119basic_ostringstreamIcSt11char_traitsIcESaIcEED1Ev(ptr noundef nonnull align 8 dereferenceable(112) %os) #3
  br label %eh.resume

if.end40:                                         ; preds = %lor.end
  %24 = load ptr, ptr %versionOut.addr, align 8
  %m_major = getelementptr inbounds %"class.OpenColorIO_v2_4dev::CTFVersion", ptr %24, i32 0, i32 0
  store i32 0, ptr %m_major, align 4
  %25 = load ptr, ptr %versionOut.addr, align 8
  %m_minor = getelementptr inbounds %"class.OpenColorIO_v2_4dev::CTFVersion", ptr %25, i32 0, i32 1
  store i32 0, ptr %m_minor, align 4
  %26 = load ptr, ptr %versionOut.addr, align 8
  %m_revision = getelementptr inbounds %"class.OpenColorIO_v2_4dev::CTFVersion", ptr %26, i32 0, i32 2
  store i32 0, ptr %m_revision, align 4
  %27 = load ptr, ptr %versionString.addr, align 8
  %call41 = call noundef ptr @_ZNKSt7__cxx1112basic_stringIcSt11char_traitsIcESaIcEE5c_strEv(ptr noundef nonnull align 8 dereferenceable(32) %27) #3
  %28 = load ptr, ptr %versionOut.addr, align 8
  %m_major42 = getelementptr inbounds %"class.OpenColorIO_v2_4dev::CTFVersion", ptr %28, i32 0, i32 0
  %29 = load ptr, ptr %versionOut.addr, align 8
  %m_minor43 = getelementptr inbounds %"class.OpenColorIO_v2_4dev::CTFVersion", ptr %29, i32 0, i32 1
  %30 = load ptr, ptr %versionOut.addr, align 8
  %m_revision44 = getelementptr inbounds %"class.OpenColorIO_v2_4dev::CTFVersion", ptr %30, i32 0, i32 2
  %call45 = call i32 (ptr, ptr, ...) @__isoc99_sscanf(ptr noundef %call41, ptr noundef @.str.14, ptr noundef %m_major42, ptr noundef %m_minor43, ptr noundef %m_revision44) #3
  ret void

eh.resume:                                        ; preds = %ehcleanup39
  %exn = load ptr, ptr %exn.slot, align 8
  %sel = load i32, ptr %ehselector.slot, align 4
  %lpad.val = insertvalue { ptr, i32 } poison, ptr %exn, 0
  %lpad.val46 = insertvalue { ptr, i32 } %lpad.val, i32 %sel, 1
  resume { ptr, i32 } %lpad.val46

unreachable:                                      ; preds = %invoke.cont38
  unreachable
}