; Function Attrs: mustprogress uwtable
define hidden void @_ZN19OpenColorIO_v2_4dev10CTFVersion11ReadVersionERKNSt7__cxx1112basic_stringIcSt11char_traitsIcESaIcEEERS0_(ptr noundef nonnull align 8 dereferenceable(32) %versionString, ptr noundef nonnull align 4 dereferenceable(12) %versionOut) local_unnamed_addr #4 align 2 personality ptr @__gxx_personality_v0 {
entry:
  %os = alloca %"class.std::__cxx11::basic_ostringstream", align 8
  %ref.tmp33 = alloca %"class.std::__cxx11::basic_string", align 8
  %call = tail call ptr @_ZNKSt7__cxx1112basic_stringIcSt11char_traitsIcESaIcEE5beginEv(ptr noundef nonnull align 8 dereferenceable(32) %versionString) #25
  %call131 = tail call ptr @_ZNKSt7__cxx1112basic_stringIcSt11char_traitsIcESaIcEE3endEv(ptr noundef nonnull align 8 dereferenceable(32) %versionString) #25
  %cmp.i.not32 = icmp eq ptr %call, %call131
  br i1 %cmp.i.not32, label %while.end, label %while.body

while.body:                                       ; preds = %entry, %if.end14
  %canBeDot.036 = phi i1 [ %isdigit, %if.end14 ], [ false, %entry ]
  %numInt.035 = phi i32 [ %numInt.1, %if.end14 ], [ 0, %entry ]
  %numDot.034 = phi i32 [ %numDot.1, %if.end14 ], [ 0, %entry ]
  %it.sroa.0.033 = phi ptr [ %it.sroa.0.1, %if.end14 ], [ %call, %entry ]
  %0 = load i8, ptr %it.sroa.0.033, align 1
  %conv = sext i8 %0 to i32
  %isdigittmp = add nsw i32 %conv, -48
  %isdigit = icmp ult i32 %isdigittmp, 10
  br i1 %isdigit, label %if.then, label %if.else

if.then:                                          ; preds = %while.body
  %add = add i32 %numDot.034, 1
  br label %if.end14

if.else:                                          ; preds = %while.body
  %cmp = icmp eq i8 %0, 46
  %brmerge.not = and i1 %canBeDot.036, %cmp
  br i1 %brmerge.not, label %if.then10, label %while.end

if.then10:                                        ; preds = %if.else
  %add11 = add i32 %numDot.034, 1
  br label %if.end14

if.end14:                                         ; preds = %if.then10, %if.then
  %numDot.1 = phi i32 [ %numDot.034, %if.then ], [ %add11, %if.then10 ]
  %numInt.1 = phi i32 [ %add, %if.then ], [ %numInt.035, %if.then10 ]
  %it.sroa.0.1 = getelementptr inbounds i8, ptr %it.sroa.0.033, i64 1
  %call1 = tail call ptr @_ZNKSt7__cxx1112basic_stringIcSt11char_traitsIcESaIcEE3endEv(ptr noundef nonnull align 8 dereferenceable(32) %versionString) #25
  %cmp.i.not = icmp eq ptr %it.sroa.0.1, %call1
  br i1 %cmp.i.not, label %while.end, label %while.body, !llvm.loop !4

while.end:                                        ; preds = %if.end14, %if.else, %entry
  %it.sroa.0.0.lcssa = phi ptr [ %call, %entry ], [ %it.sroa.0.033, %if.else ], [ %it.sroa.0.1, %if.end14 ]
  %numDot.0.lcssa = phi i32 [ 0, %entry ], [ %numDot.034, %if.else ], [ %numDot.1, %if.end14 ]
  %numInt.0.lcssa = phi i32 [ 0, %entry ], [ %numInt.035, %if.else ], [ %numInt.1, %if.end14 ]
  %call15 = tail call noundef zeroext i1 @_ZNKSt7__cxx1112basic_stringIcSt11char_traitsIcESaIcEE5emptyEv(ptr noundef nonnull align 8 dereferenceable(32) %versionString) #25
  br i1 %call15, label %if.then25, label %lor.lhs.false

lor.lhs.false:                                    ; preds = %while.end
  %call17 = tail call ptr @_ZNKSt7__cxx1112basic_stringIcSt11char_traitsIcESaIcEE3endEv(ptr noundef nonnull align 8 dereferenceable(32) %versionString) #25
  %cmp.i20 = icmp ne ptr %it.sroa.0.0.lcssa, %call17
  %cmp21 = icmp eq i32 %numInt.0.lcssa, 0
  %or.cond = select i1 %cmp.i20, i1 true, i1 %cmp21
  %cmp23 = icmp ugt i32 %numInt.0.lcssa, 3
  %or.cond1 = select i1 %or.cond, i1 true, i1 %cmp23
  %cmp24 = icmp eq i32 %numInt.0.lcssa, %numDot.0.lcssa
  %or.cond18 = select i1 %or.cond1, i1 true, i1 %cmp24
  br i1 %or.cond18, label %if.then25, label %if.end40

if.then25:                                        ; preds = %lor.lhs.false, %while.end
  call void @_ZNSt7__cxx1119basic_ostringstreamIcSt11char_traitsIcESaIcEEC1Ev(ptr noundef nonnull align 8 dereferenceable(112) %os)
  %call26 = invoke noundef nonnull align 8 dereferenceable(8) ptr @_ZStlsISt11char_traitsIcEERSt13basic_ostreamIcT_ES5_PKc(ptr noundef nonnull align 8 dereferenceable(8) %os, ptr noundef nonnull @.str)
          to label %invoke.cont unwind label %lpad

invoke.cont:                                      ; preds = %if.then25
  %call28 = invoke noundef nonnull align 8 dereferenceable(8) ptr @_ZStlsIcSt11char_traitsIcESaIcEERSt13basic_ostreamIT_T0_ES7_RKNSt7__cxx1112basic_stringIS4_S5_T1_EE(ptr noundef nonnull align 8 dereferenceable(8) %os, ptr noundef nonnull align 8 dereferenceable(32) %versionString)
          to label %invoke.cont27 unwind label %lpad

invoke.cont27:                                    ; preds = %invoke.cont
  %call30 = invoke noundef nonnull align 8 dereferenceable(8) ptr @_ZStlsISt11char_traitsIcEERSt13basic_ostreamIcT_ES5_PKc(ptr noundef nonnull align 8 dereferenceable(8) %os, ptr noundef nonnull @.str.12)
          to label %invoke.cont29 unwind label %lpad

invoke.cont29:                                    ; preds = %invoke.cont27
  %call32 = invoke noundef nonnull align 8 dereferenceable(8) ptr @_ZStlsISt11char_traitsIcEERSt13basic_ostreamIcT_ES5_PKc(ptr noundef nonnull align 8 dereferenceable(8) %os, ptr noundef nonnull @.str.13)
          to label %invoke.cont31 unwind label %lpad

invoke.cont31:                                    ; preds = %invoke.cont29
  %exception = call ptr @__cxa_allocate_exception(i64 16) #25
  invoke void @_ZNKSt7__cxx1119basic_ostringstreamIcSt11char_traitsIcESaIcEE3strEv(ptr nonnull sret(%"class.std::__cxx11::basic_string") align 8 %ref.tmp33, ptr noundef nonnull align 8 dereferenceable(112) %os)
          to label %invoke.cont35 unwind label %ehcleanup.thread

invoke.cont35:                                    ; preds = %invoke.cont31
  %call36 = call noundef ptr @_ZNKSt7__cxx1112basic_stringIcSt11char_traitsIcESaIcEE5c_strEv(ptr noundef nonnull align 8 dereferenceable(32) %ref.tmp33) #25
  invoke void @_ZN19OpenColorIO_v2_4dev9ExceptionC1EPKc(ptr noundef nonnull align 8 dereferenceable(16) %exception, ptr noundef %call36)
          to label %invoke.cont38 unwind label %ehcleanup.thread29

ehcleanup.thread29:                               ; preds = %invoke.cont35
  %1 = landingpad { ptr, i32 }
          cleanup
  call void @_ZNSt7__cxx1112basic_stringIcSt11char_traitsIcESaIcEED1Ev(ptr noundef nonnull align 8 dereferenceable(32) %ref.tmp33) #25
  br label %cleanup.action

invoke.cont38:                                    ; preds = %invoke.cont35
  invoke void @__cxa_throw(ptr nonnull %exception, ptr nonnull @_ZTIN19OpenColorIO_v2_4dev9ExceptionE, ptr nonnull @_ZN19OpenColorIO_v2_4dev9ExceptionD1Ev) #26
          to label %unreachable unwind label %ehcleanup

lpad:                                             ; preds = %invoke.cont29, %invoke.cont27, %invoke.cont, %if.then25
  %2 = landingpad { ptr, i32 }
          cleanup
  br label %ehcleanup39

ehcleanup.thread:                                 ; preds = %invoke.cont31
  %3 = landingpad { ptr, i32 }
          cleanup
  br label %cleanup.action

ehcleanup:                                        ; preds = %invoke.cont38
  %4 = landingpad { ptr, i32 }
          cleanup
  call void @_ZNSt7__cxx1112basic_stringIcSt11char_traitsIcESaIcEED1Ev(ptr noundef nonnull align 8 dereferenceable(32) %ref.tmp33) #25
  br label %ehcleanup39

cleanup.action:                                   ; preds = %ehcleanup.thread29, %ehcleanup.thread
  %.pn28 = phi { ptr, i32 } [ %3, %ehcleanup.thread ], [ %1, %ehcleanup.thread29 ]
  call void @__cxa_free_exception(ptr %exception) #25
  br label %ehcleanup39

ehcleanup39:                                      ; preds = %ehcleanup, %cleanup.action, %lpad
  %.pn.pn = phi { ptr, i32 } [ %.pn28, %cleanup.action ], [ %4, %ehcleanup ], [ %2, %lpad ]
  call void @_ZNSt7__cxx1119basic_ostringstreamIcSt11char_traitsIcESaIcEED1Ev(ptr noundef nonnull align 8 dereferenceable(112) %os) #25
  resume { ptr, i32 } %.pn.pn

if.end40:                                         ; preds = %lor.lhs.false
  store i32 0, ptr %versionOut, align 4
  %m_minor = getelementptr inbounds i8, ptr %versionOut, i64 4
  store i32 0, ptr %m_minor, align 4
  %m_revision = getelementptr inbounds i8, ptr %versionOut, i64 8
  store i32 0, ptr %m_revision, align 4
  %call41 = tail call noundef ptr @_ZNKSt7__cxx1112basic_stringIcSt11char_traitsIcESaIcEE5c_strEv(ptr noundef nonnull align 8 dereferenceable(32) %versionString) #25
  %call45 = tail call i32 (ptr, ptr, ...) @__isoc99_sscanf(ptr noundef %call41, ptr noundef nonnull @.str.14, ptr noundef nonnull %versionOut, ptr noundef nonnull %m_minor, ptr noundef nonnull %m_revision) #25
  ret void

unreachable:                                      ; preds = %invoke.cont38
  unreachable
}